; Function Attrs: mustprogress nounwind uwtable
define dso_local void @_ZN4node9inspector8protocol12ErrorSupport3popEv(ptr nocapture noundef nonnull align 8 dereferenceable(48) %this) local_unnamed_addr #1 align 2 {
entry:
  %_M_finish.i = getelementptr inbounds i8, ptr %this, i64 8
  %0 = load ptr, ptr %_M_finish.i, align 8
  %incdec.ptr.i = getelementptr inbounds i8, ptr %0, i64 -32
  store ptr %incdec.ptr.i, ptr %_M_finish.i, align 8
  tail call void @_ZNSt7__cxx1112basic_stringIcSt11char_traitsIcESaIcEED1Ev(ptr noundef nonnull align 8 dereferenceable(32) %incdec.ptr.i) #27
  ret void
}